target datalayout = "e-m:e-p270:32:32-p271:32:32-p272:64:64-i64:64-i128:128-f80:128-n8:16:32:64-S128"
target triple = "x86_64-pc-linux-gnu"

%struct.H5T_t = type { %struct.H5O_shared_t, ptr, %struct.H5O_loc_t, %struct.H5G_name_t, ptr }
%struct.H5O_shared_t = type { i32, ptr, i32, %union.anon }
%union.anon = type { %struct.H5O_mesg_loc_t }
%struct.H5O_mesg_loc_t = type { i32, i64 }
%struct.H5O_loc_t = type { ptr, i64, i8 }
%struct.H5G_name_t = type { ptr, ptr, i32 }
%struct.H5T_shared_t = type { i64, i32, i32, i64, i32, i8, ptr, ptr, %union.anon.0 }
%union.anon.0 = type { %struct.H5T_array_t }
%struct.H5T_array_t = type { i64, i32, [32 x i64] }
%struct.H5T_vlen_t = type { i32, i32, i32, i32, ptr, ptr }

; Function Attrs: nounwind uwtable
define i32 @H5T_get_class(ptr noundef %0, i32 noundef %1) #0 {
  %3 = alloca ptr, align 8
  %4 = alloca i32, align 4
  %5 = alloca i32, align 4
  store ptr %0, ptr %3, align 8
  store i32 %1, ptr %4, align 4
  store i32 -1, ptr %5, align 4
  %6 = load i32, ptr %4, align 4
  %7 = icmp ne i32 %6, 0
  br i1 %7, label %8, label %14

8:                                                ; preds = %2
  %9 = load ptr, ptr %3, align 8
  %10 = getelementptr inbounds %struct.H5T_t, ptr %9, i32 0, i32 1
  %11 = load ptr, ptr %10, align 8
  %12 = getelementptr inbounds %struct.H5T_shared_t, ptr %11, i32 0, i32 2
  %13 = load i32, ptr %12, align 4
  store i32 %13, ptr %5, align 4
  br label %37

14:                                               ; preds = %2
  %15 = load ptr, ptr %3, align 8
  %16 = getelementptr inbounds %struct.H5T_t, ptr %15, i32 0, i32 1
  %17 = load ptr, ptr %16, align 8
  %18 = getelementptr inbounds %struct.H5T_shared_t, ptr %17, i32 0, i32 2
  %19 = load i32, ptr %18, align 4
  %20 = icmp eq i32 9, %19
  br i1 %20, label %21, label %30

21:                                               ; preds = %14
  %22 = load ptr, ptr %3, align 8
  %23 = getelementptr inbounds %struct.H5T_t, ptr %22, i32 0, i32 1
  %24 = load ptr, ptr %23, align 8
  %25 = getelementptr inbounds %struct.H5T_shared_t, ptr %24, i32 0, i32 8
  %26 = getelementptr inbounds %struct.H5T_vlen_t, ptr %25, i32 0, i32 0
  %27 = load i32, ptr %26, align 8
  %28 = icmp eq i32 1, %27
  br i1 %28, label %29, label %30

29:                                               ; preds = %21
  store i32 3, ptr %5, align 4
  br label %36

30:                                               ; preds = %21, %14
  %31 = load ptr, ptr %3, align 8
  %32 = getelementptr inbounds %struct.H5T_t, ptr %31, i32 0, i32 1
  %33 = load ptr, ptr %32, align 8
  %34 = getelementptr inbounds %struct.H5T_shared_t, ptr %33, i32 0, i32 2
  %35 = load i32, ptr %34, align 4
  store i32 %35, ptr %5, align 4
  br label %36

36:                                               ; preds = %30, %29
  br label %37

37:                                               ; preds = %36, %8
  %38 = load i32, ptr %5, align 4
  ret i32 %38
}