; Function Attrs: mustprogress nofree norecurse nosync nounwind willreturn memory(read, inaccessiblemem: none) uwtable
define i32 @H5T_get_class(ptr nocapture noundef readonly %0, i32 noundef %1) local_unnamed_addr #5 {
  %.not = icmp eq i32 %1, 0
  %3 = getelementptr inbounds i8, ptr %0, i64 40
  %4 = load ptr, ptr %3, align 8
  %5 = getelementptr inbounds i8, ptr %4, i64 12
  %6 = load i32, ptr %5, align 4
  br i1 %.not, label %7, label %14

7:                                                ; preds = %2
  %8 = icmp eq i32 %6, 9
  br i1 %8, label %9, label %13

9:                                                ; preds = %7
  %10 = getelementptr inbounds i8, ptr %4, i64 48
  %11 = load i32, ptr %10, align 8
  %12 = icmp eq i32 %11, 1
  br i1 %12, label %14, label %13

13:                                               ; preds = %9, %7
  br label %14

14:                                               ; preds = %2, %9, %13
  %.0 = phi i32 [ %6, %13 ], [ 3, %9 ], [ %6, %2 ]
  ret i32 %.0
}